target datalayout = "e-m:e-p270:32:32-p271:32:32-p272:64:64-i64:64-i128:128-f80:128-n8:16:32:64-S128"
target triple = "x86_64-pc-linux-gnu"

%struct.H5SL_t = type { i32, ptr, i32, i64, ptr, ptr }
%struct.H5SL_node_t = type { ptr, ptr, i64, i64, i32, ptr, ptr }

@H5SL_init_g = global i8 0, align 1
@H5_libterm_g = external global i8, align 1
@.str = private unnamed_addr constant [98 x i8] c"generated/home/dtcxzyw/WorkSpace/Projects/compilers/llvm-opt-benchmark/bench/hdf5/hdf5/src/H5SL.c\00", align 1
@__func__.H5SL_create = private unnamed_addr constant [12 x i8] c"H5SL_create\00", align 1
@H5E_FUNC_g = external global i64, align 8
@H5E_CANTINIT_g = external global i64, align 8
@.str.1 = private unnamed_addr constant [32 x i8] c"interface initialization failed\00", align 1
@H5E_SLIST_g = external global i64, align 8
@H5E_NOSPACE_g = external global i64, align 8
@.str.2 = private unnamed_addr constant [25 x i8] c"memory allocation failed\00", align 1
@.str.3 = private unnamed_addr constant [32 x i8] c"can't create new skip list node\00", align 1
@H5_H5SL_t_reg_free_list = internal global { i8, [3 x i8], i32, i32, [4 x i8], ptr, i64, ptr } { i8 0, [3 x i8] zeroinitializer, i32 0, i32 0, [4 x i8] zeroinitializer, ptr @.str.6, i64 48, ptr null }, align 8

; Function Attrs: nounwind uwtable
define ptr @H5SL_create(i32 noundef %0, ptr noundef %1) #0 {
  %3 = alloca i32, align 4
  %4 = alloca ptr, align 8
  %5 = alloca ptr, align 8
  %6 = alloca ptr, align 8
  %7 = alloca ptr, align 8
  %8 = alloca i8, align 1
  store i32 %0, ptr %3, align 4, !tbaa !16
  store ptr %1, ptr %4, align 8, !tbaa !20
  call void @llvm.lifetime.start.p0(i64 8, ptr %5) #8
  store ptr null, ptr %5, align 8, !tbaa !21
  call void @llvm.lifetime.start.p0(i64 8, ptr %6) #8
  call void @llvm.lifetime.start.p0(i64 8, ptr %7) #8
  store ptr null, ptr %7, align 8, !tbaa !21
  call void @llvm.lifetime.start.p0(i64 1, ptr %8) #8
  store i8 0, ptr %8, align 1, !tbaa !3
  %9 = load i8, ptr @H5SL_init_g, align 1, !tbaa !3, !range !7, !noundef !8
  %10 = trunc i8 %9 to i1
  br i1 %10, label %15, label %11

11:                                               ; preds = %2
  %12 = load i8, ptr @H5_libterm_g, align 1, !tbaa !3, !range !7, !noundef !8
  %13 = trunc i8 %12 to i1
  %14 = xor i1 %13, true
  br label %15

15:                                               ; preds = %11, %2
  %16 = phi i1 [ false, %2 ], [ %14, %11 ]
  %17 = xor i1 %16, true
  %18 = xor i1 %17, true
  %19 = zext i1 %18 to i32
  %20 = sext i32 %19 to i64
  %21 = call i64 @llvm.expect.i64(i64 %20, i64 0)
  %22 = icmp ne i64 %21, 0
  br i1 %22, label %23, label %46

23:                                               ; preds = %15
  store i8 1, ptr @H5SL_init_g, align 1, !tbaa !3
  %24 = call i32 @H5SL__init_package()
  %25 = icmp slt i32 %24, 0
  br i1 %25, label %26, label %45

26:                                               ; preds = %23
  store i8 0, ptr @H5SL_init_g, align 1, !tbaa !3
  br label %27

27:                                               ; preds = %26
  br label %28

28:                                               ; preds = %27
  br label %29

29:                                               ; preds = %28
  %30 = load i64, ptr @H5E_FUNC_g, align 8, !tbaa !12
  %31 = load i64, ptr @H5E_CANTINIT_g, align 8, !tbaa !12
  %32 = call i32 (ptr, ptr, i32, i64, i64, ptr, ...) @H5E_printf_stack(ptr noundef @.str, ptr noundef @__func__.H5SL_create, i32 noundef 936, i64 noundef %30, i64 noundef %31, ptr noundef @.str.1)
  br label %33

33:                                               ; preds = %29
  br label %34

34:                                               ; preds = %33
  store i8 1, ptr %8, align 1, !tbaa !3
  %35 = load i8, ptr %8, align 1, !tbaa !3, !range !7, !noundef !8
  %36 = trunc i8 %35 to i1
  %37 = zext i1 %36 to i8
  store i8 %37, ptr %8, align 1, !tbaa !3
  br label %38

38:                                               ; preds = %34
  br label %39

39:                                               ; preds = %38
  br label %40

40:                                               ; preds = %39
  store ptr null, ptr %7, align 8, !tbaa !21
  br label %129

41:                                               ; No predecessors!
  br label %42

42:                                               ; preds = %41
  br label %43

43:                                               ; preds = %42
  br label %44

44:                                               ; preds = %43
  br label %45

45:                                               ; preds = %44, %23
  br label %46

46:                                               ; preds = %45, %15
  %47 = load i8, ptr @H5SL_init_g, align 1, !tbaa !3, !range !7, !noundef !8
  %48 = trunc i8 %47 to i1
  br i1 %48, label %53, label %49

49:                                               ; preds = %46
  %50 = load i8, ptr @H5_libterm_g, align 1, !tbaa !3, !range !7, !noundef !8
  %51 = trunc i8 %50 to i1
  %52 = xor i1 %51, true
  br label %53

53:                                               ; preds = %49, %46
  %54 = phi i1 [ true, %46 ], [ %52, %49 ]
  %55 = xor i1 %54, true
  %56 = xor i1 %55, true
  %57 = zext i1 %56 to i32
  %58 = sext i32 %57 to i64
  %59 = call i64 @llvm.expect.i64(i64 %58, i64 1)
  %60 = icmp ne i64 %59, 0
  br i1 %60, label %61, label %140

61:                                               ; preds = %53
  %62 = call noalias ptr @H5FL_reg_malloc(ptr noundef @H5_H5SL_t_reg_free_list)
  store ptr %62, ptr %5, align 8, !tbaa !21
  %63 = icmp eq ptr null, %62
  br i1 %63, label %64, label %83

64:                                               ; preds = %61
  br label %65

65:                                               ; preds = %64
  br label %66

66:                                               ; preds = %65
  br label %67

67:                                               ; preds = %66
  %68 = load i64, ptr @H5E_SLIST_g, align 8, !tbaa !12
  %69 = load i64, ptr @H5E_NOSPACE_g, align 8, !tbaa !12
  %70 = call i32 (ptr, ptr, i32, i64, i64, ptr, ...) @H5E_printf_stack(ptr noundef @.str, ptr noundef @__func__.H5SL_create, i32 noundef 943, i64 noundef %68, i64 noundef %69, ptr noundef @.str.2)
  br label %71

71:                                               ; preds = %67
  br label %72

72:                                               ; preds = %71
  store i8 1, ptr %8, align 1, !tbaa !3
  %73 = load i8, ptr %8, align 1, !tbaa !3, !range !7, !noundef !8
  %74 = trunc i8 %73 to i1
  %75 = zext i1 %74 to i8
  store i8 %75, ptr %8, align 1, !tbaa !3
  br label %76

76:                                               ; preds = %72
  br label %77

77:                                               ; preds = %76
  br label %78

78:                                               ; preds = %77
  store ptr null, ptr %7, align 8, !tbaa !21
  br label %129

79:                                               ; No predecessors!
  br label %80

80:                                               ; preds = %79
  br label %81

81:                                               ; preds = %80
  br label %82

82:                                               ; preds = %81
  br label %83

83:                                               ; preds = %82, %61
  %84 = load i32, ptr %3, align 4, !tbaa !16
  %85 = load ptr, ptr %5, align 8, !tbaa !21
  %86 = getelementptr inbounds nuw %struct.H5SL_t, ptr %85, i32 0, i32 0
  store i32 %84, ptr %86, align 8, !tbaa !23
  %87 = load ptr, ptr %4, align 8, !tbaa !20
  %88 = load ptr, ptr %5, align 8, !tbaa !21
  %89 = getelementptr inbounds nuw %struct.H5SL_t, ptr %88, i32 0, i32 1
  store ptr %87, ptr %89, align 8, !tbaa !26
  %90 = load ptr, ptr %5, align 8, !tbaa !21
  %91 = getelementptr inbounds nuw %struct.H5SL_t, ptr %90, i32 0, i32 2
  store i32 -1, ptr %91, align 8, !tbaa !27
  %92 = load ptr, ptr %5, align 8, !tbaa !21
  %93 = getelementptr inbounds nuw %struct.H5SL_t, ptr %92, i32 0, i32 3
  store i64 0, ptr %93, align 8, !tbaa !28
  %94 = call ptr @H5SL__new_node(ptr noundef null, ptr noundef null, i32 noundef -1)
  store ptr %94, ptr %6, align 8, !tbaa !29
  %95 = icmp eq ptr null, %94
  br i1 %95, label %96, label %115

96:                                               ; preds = %83
  br label %97

97:                                               ; preds = %96
  br label %98

98:                                               ; preds = %97
  br label %99

99:                                               ; preds = %98
  %100 = load i64, ptr @H5E_SLIST_g, align 8, !tbaa !12
  %101 = load i64, ptr @H5E_NOSPACE_g, align 8, !tbaa !12
  %102 = call i32 (ptr, ptr, i32, i64, i64, ptr, ...) @H5E_printf_stack(ptr noundef @.str, ptr noundef @__func__.H5SL_create, i32 noundef 956, i64 noundef %100, i64 noundef %101, ptr noundef @.str.3)
  br label %103

103:                                              ; preds = %99
  br label %104

104:                                              ; preds = %103
  store i8 1, ptr %8, align 1, !tbaa !3
  %105 = load i8, ptr %8, align 1, !tbaa !3, !range !7, !noundef !8
  %106 = trunc i8 %105 to i1
  %107 = zext i1 %106 to i8
  store i8 %107, ptr %8, align 1, !tbaa !3
  br label %108

108:                                              ; preds = %104
  br label %109

109:                                              ; preds = %108
  br label %110

110:                                              ; preds = %109
  store ptr null, ptr %7, align 8, !tbaa !21
  br label %129

111:                                              ; No predecessors!
  br label %112

112:                                              ; preds = %111
  br label %113

113:                                              ; preds = %112
  br label %114

114:                                              ; preds = %113
  br label %115

115:                                              ; preds = %114, %83
  %116 = load ptr, ptr %6, align 8, !tbaa !29
  %117 = getelementptr inbounds nuw %struct.H5SL_node_t, ptr %116, i32 0, i32 5
  %118 = load ptr, ptr %117, align 8, !tbaa !30
  %119 = getelementptr inbounds ptr, ptr %118, i64 0
  store ptr null, ptr %119, align 8, !tbaa !29
  %120 = load ptr, ptr %6, align 8, !tbaa !29
  %121 = getelementptr inbounds nuw %struct.H5SL_node_t, ptr %120, i32 0, i32 6
  store ptr null, ptr %121, align 8, !tbaa !33
  %122 = load ptr, ptr %6, align 8, !tbaa !29
  %123 = load ptr, ptr %5, align 8, !tbaa !21
  %124 = getelementptr inbounds nuw %struct.H5SL_t, ptr %123, i32 0, i32 4
  store ptr %122, ptr %124, align 8, !tbaa !34
  %125 = load ptr, ptr %6, align 8, !tbaa !29
  %126 = load ptr, ptr %5, align 8, !tbaa !21
  %127 = getelementptr inbounds nuw %struct.H5SL_t, ptr %126, i32 0, i32 5
  store ptr %125, ptr %127, align 8, !tbaa !35
  %128 = load ptr, ptr %5, align 8, !tbaa !21
  store ptr %128, ptr %7, align 8, !tbaa !21
  br label %129

129:                                              ; preds = %115, %110, %78, %40
  %130 = load ptr, ptr %7, align 8, !tbaa !21
  %131 = icmp eq ptr %130, null
  br i1 %131, label %132, label %139

132:                                              ; preds = %129
  %133 = load ptr, ptr %5, align 8, !tbaa !21
  %134 = icmp ne ptr %133, null
  br i1 %134, label %135, label %138

135:                                              ; preds = %132
  %136 = load ptr, ptr %5, align 8, !tbaa !21
  %137 = call ptr @H5FL_reg_free(ptr noundef @H5_H5SL_t_reg_free_list, ptr noundef %136)
  store ptr %137, ptr %5, align 8, !tbaa !21
  br label %138

138:                                              ; preds = %135, %132
  br label %139

139:                                              ; preds = %138, %129
  br label %140

140:                                              ; preds = %139, %53
  %141 = load ptr, ptr %7, align 8, !tbaa !21
  call void @llvm.lifetime.end.p0(i64 1, ptr %8) #8
  call void @llvm.lifetime.end.p0(i64 8, ptr %7) #8
  call void @llvm.lifetime.end.p0(i64 8, ptr %6) #8
  call void @llvm.lifetime.end.p0(i64 8, ptr %5) #8
  ret ptr %141
}