; Function Attrs: nounwind uwtable
define ptr @H5SL_create(i32 noundef %0, ptr noundef %1) local_unnamed_addr #0 {
  %3 = load i8, ptr @H5SL_init_g, align 1, !tbaa !3, !range !7, !noundef !8
  %4 = trunc nuw i8 %3 to i1
  %5 = load i8, ptr @H5_libterm_g, align 1, !range !7
  %6 = trunc nuw i8 %5 to i1
  %7 = select i1 %4, i1 true, i1 %6
  br i1 %7, label %10, label %8, !prof !9

8:                                                ; preds = %2
  store i8 1, ptr @H5SL_init_g, align 1, !tbaa !3
  %9 = tail call i32 @H5SL__init_package()
  %.pre = load i8, ptr @H5SL_init_g, align 1, !tbaa !3, !range !7
  %.pre27 = load i8, ptr @H5_libterm_g, align 1, !range !7
  %.pre28 = trunc nuw i8 %.pre to i1
  %.pre29 = trunc nuw i8 %.pre27 to i1
  br label %10

10:                                               ; preds = %8, %2
  %.pre-phi30 = phi i1 [ %.pre29, %8 ], [ %6, %2 ]
  %.pre-phi = phi i1 [ %.pre28, %8 ], [ %4, %2 ]
  %11 = xor i1 %.pre-phi30, true
  %12 = select i1 %.pre-phi, i1 true, i1 %11
  br i1 %12, label %13, label %.thread, !prof !9

13:                                               ; preds = %10
  %14 = tail call noalias ptr @H5FL_reg_malloc(ptr noundef nonnull @H5_H5SL_t_reg_free_list) #9
  %15 = icmp eq ptr %14, null
  br i1 %15, label %16, label %20

16:                                               ; preds = %13
  %17 = load i64, ptr @H5E_SLIST_g, align 8, !tbaa !13
  %18 = load i64, ptr @H5E_NOSPACE_g, align 8, !tbaa !13
  %19 = tail call i32 (ptr, ptr, i32, i64, i64, ptr, ...) @H5E_printf_stack(ptr noundef nonnull @.str, ptr noundef nonnull @__func__.H5SL_create, i32 noundef 943, i64 noundef %17, i64 noundef %18, ptr noundef nonnull @.str.2) #9
  br label %.thread

20:                                               ; preds = %13
  store i32 %0, ptr %14, align 8, !tbaa !20
  %21 = getelementptr inbounds nuw i8, ptr %14, i64 8
  store ptr %1, ptr %21, align 8, !tbaa !24
  %22 = getelementptr inbounds nuw i8, ptr %14, i64 16
  store i32 -1, ptr %22, align 8, !tbaa !25
  %23 = getelementptr inbounds nuw i8, ptr %14, i64 24
  store i64 0, ptr %23, align 8, !tbaa !26
  %24 = tail call fastcc ptr @H5SL__new_node(ptr noundef null, ptr noundef null, i32 noundef -1)
  %25 = icmp eq ptr %24, null
  br i1 %25, label %32, label %26

26:                                               ; preds = %20
  %27 = getelementptr inbounds nuw i8, ptr %24, i64 40
  %28 = load ptr, ptr %27, align 8, !tbaa !27
  store ptr null, ptr %28, align 8, !tbaa !30
  %29 = getelementptr inbounds nuw i8, ptr %24, i64 48
  store ptr null, ptr %29, align 8, !tbaa !31
  %30 = getelementptr inbounds nuw i8, ptr %14, i64 32
  store ptr %24, ptr %30, align 8, !tbaa !32
  %31 = getelementptr inbounds nuw i8, ptr %14, i64 40
  store ptr %24, ptr %31, align 8, !tbaa !33
  br label %.thread

32:                                               ; preds = %20
  %33 = load i64, ptr @H5E_SLIST_g, align 8, !tbaa !13
  %34 = load i64, ptr @H5E_NOSPACE_g, align 8, !tbaa !13
  %35 = tail call i32 (ptr, ptr, i32, i64, i64, ptr, ...) @H5E_printf_stack(ptr noundef nonnull @.str, ptr noundef nonnull @__func__.H5SL_create, i32 noundef 956, i64 noundef %33, i64 noundef %34, ptr noundef nonnull @.str.3) #9
  %36 = tail call ptr @H5FL_reg_free(ptr noundef nonnull @H5_H5SL_t_reg_free_list, ptr noundef nonnull %14) #9
  br label %.thread

.thread:                                          ; preds = %16, %26, %32, %10
  %.1 = phi ptr [ null, %32 ], [ null, %10 ], [ %14, %26 ], [ null, %16 ]
  ret ptr %.1
}